; Function Attrs: mustprogress nofree norecurse nosync nounwind willreturn memory(argmem: read) uwtable
define range(i32 0, 2) i32 @VP8LCheckSignature(ptr noundef readonly captures(none) %0, i64 noundef %1) local_unnamed_addr #0 {
  %3 = icmp ugt i64 %1, 4
  br i1 %3, label %4, label %12

4:                                                ; preds = %2
  %5 = load i8, ptr %0, align 1, !tbaa !3
  %6 = icmp eq i8 %5, 47
  br i1 %6, label %7, label %12

7:                                                ; preds = %4
  %8 = getelementptr inbounds nuw i8, ptr %0, i64 4
  %9 = load i8, ptr %8, align 1, !tbaa !3
  %10 = icmp ult i8 %9, 32
  %11 = zext i1 %10 to i32
  br label %12

12:                                               ; preds = %7, %4, %2
  %13 = phi i32 [ 0, %4 ], [ 0, %2 ], [ %11, %7 ]
  ret i32 %13
}